target datalayout = "e-m:e-p270:32:32-p271:32:32-p272:64:64-i64:64-i128:128-f80:128-n8:16:32:64-S128"
target triple = "x86_64-pc-linux-gnu"

@proto_register_hartip.ett = internal global [4 x ptr] [ptr @ett_hartip, ptr @ett_hartip_hdr, ptr @ett_hartip_body, ptr @ett_hartip_pt_delimiter], align 16
@.str.330 = private unnamed_addr constant [17 x i8] c"HART_IP Protocol\00", align 1
@.str.331 = private unnamed_addr constant [8 x i8] c"HART_IP\00", align 1
@.str.332 = private unnamed_addr constant [8 x i8] c"hart_ip\00", align 1
@proto_hartip = internal global i32 0, align 4
@.str.333 = private unnamed_addr constant [10 x i8] c"desegment\00", align 1
@.str.334 = private unnamed_addr constant [62 x i8] c"Desegment all HART-IP messages spanning multiple TCP segments\00", align 1
@.str.335 = private unnamed_addr constant [91 x i8] c"Whether the HART-IP dissector should desegment all messages spanning multiple TCP segments\00", align 1
@hartip_desegment = internal global i8 1, align 1
@hartip_tap = internal global i32 0, align 4
@.str.336 = private unnamed_addr constant [17 x i8] c"HART-IP over UDP\00", align 1
@hartip_udp_handle = internal global ptr null, align 8
@.str.337 = private unnamed_addr constant [12 x i8] c"hart_ip.tcp\00", align 1
@.str.338 = private unnamed_addr constant [17 x i8] c"HART-IP over TCP\00", align 1
@hartip_tcp_handle = internal global ptr null, align 8

; Function Attrs: null_pointer_is_valid sspstrong uwtable
define hidden void @proto_register_hartip() #0 {
  %1 = alloca ptr, align 8
  %2 = alloca ptr, align 8
  call void @llvm.lifetime.start.p0(i64 8, ptr %1) #5
  call void @llvm.lifetime.start.p0(i64 8, ptr %2) #5
  %3 = call i32 @proto_register_protocol(ptr noundef @.str.330, ptr noundef @.str.331, ptr noundef @.str.332)
  store i32 %3, ptr @proto_hartip, align 4
  %4 = load i32, ptr @proto_hartip, align 4
  call void @proto_register_field_array(i32 noundef %4, ptr noundef @proto_register_hartip.hf, i32 noundef 152)
  call void @proto_register_subtree_array(ptr noundef @proto_register_hartip.ett, i32 noundef 4)
  %5 = load i32, ptr @proto_hartip, align 4
  %6 = call ptr @expert_register_protocol(i32 noundef %5)
  store ptr %6, ptr %2, align 8
  %7 = load ptr, ptr %2, align 8
  call void @expert_register_field_array(ptr noundef %7, ptr noundef @proto_register_hartip.ei, i32 noundef 2)
  %8 = load i32, ptr @proto_hartip, align 4
  %9 = call ptr @prefs_register_protocol(i32 noundef %8, ptr noundef null)
  store ptr %9, ptr %1, align 8
  %10 = load ptr, ptr %1, align 8
  call void @prefs_register_bool_preference(ptr noundef %10, ptr noundef @.str.333, ptr noundef @.str.334, ptr noundef @.str.335, ptr noundef @hartip_desegment)
  %11 = call i32 @register_tap(ptr noundef @.str.332)
  store i32 %11, ptr @hartip_tap, align 4
  %12 = load i32, ptr @proto_hartip, align 4
  %13 = call ptr @register_dissector_with_description(ptr noundef @.str.332, ptr noundef @.str.336, ptr noundef @dissect_hartip_udp, i32 noundef %12)
  store ptr %13, ptr @hartip_udp_handle, align 8
  %14 = load i32, ptr @proto_hartip, align 4
  %15 = call ptr @register_dissector_with_description(ptr noundef @.str.337, ptr noundef @.str.338, ptr noundef @dissect_hartip_tcp, i32 noundef %14)
  store ptr %15, ptr @hartip_tcp_handle, align 8
  call void @llvm.lifetime.end.p0(i64 8, ptr %2) #5
  call void @llvm.lifetime.end.p0(i64 8, ptr %1) #5
  ret void
}