; Function Attrs: null_pointer_is_valid sspstrong uwtable
define hidden void @proto_register_hartip() local_unnamed_addr #0 {
  %1 = tail call i32 @proto_register_protocol(ptr noundef nonnull @.str.330, ptr noundef nonnull @.str.331, ptr noundef nonnull @.str.332)
  store i32 %1, ptr @proto_hartip, align 4
  tail call void @proto_register_field_array(i32 noundef %1, ptr noundef nonnull @proto_register_hartip.hf, i32 noundef 152)
  tail call void @proto_register_subtree_array(ptr noundef nonnull @proto_register_hartip.ett, i32 noundef 4)
  %2 = load i32, ptr @proto_hartip, align 4
  %3 = tail call ptr @expert_register_protocol(i32 noundef %2)
  tail call void @expert_register_field_array(ptr noundef %3, ptr noundef nonnull @proto_register_hartip.ei, i32 noundef 2)
  %4 = load i32, ptr @proto_hartip, align 4
  %5 = tail call ptr @prefs_register_protocol(i32 noundef %4, ptr noundef null)
  tail call void @prefs_register_bool_preference(ptr noundef %5, ptr noundef nonnull @.str.333, ptr noundef nonnull @.str.334, ptr noundef nonnull @.str.335, ptr noundef nonnull @hartip_desegment)
  %6 = tail call i32 @register_tap(ptr noundef nonnull @.str.332)
  store i32 %6, ptr @hartip_tap, align 4
  %7 = load i32, ptr @proto_hartip, align 4
  %8 = tail call ptr @register_dissector_with_description(ptr noundef nonnull @.str.332, ptr noundef nonnull @.str.336, ptr noundef nonnull @dissect_hartip_udp, i32 noundef %7)
  store ptr %8, ptr @hartip_udp_handle, align 8
  %9 = load i32, ptr @proto_hartip, align 4
  %10 = tail call ptr @register_dissector_with_description(ptr noundef nonnull @.str.337, ptr noundef nonnull @.str.338, ptr noundef nonnull @dissect_hartip_tcp, i32 noundef %9)
  store ptr %10, ptr @hartip_tcp_handle, align 8
  ret void
}